target datalayout = "e-m:e-p270:32:32-p271:32:32-p272:64:64-i64:64-i128:128-f80:128-n8:16:32:64-S128"
target triple = "x86_64-pc-linux-gnu"

%union.pthread_mutex_t = type { %struct.__pthread_mutex_s }
%struct.__pthread_mutex_s = type { i32, i32, i32, i32, i32, i16, i16, %struct.__pthread_internal_list }
%struct.__pthread_internal_list = type { ptr, ptr }
%struct.___itt_global = type { [8 x i8], i64, i64, i64, i64, i64, i64, %union.pthread_mutex_t, ptr, ptr, ptr, ptr, ptr, ptr, ptr, ptr, i32, ptr, i32, ptr, ptr }

@__itt_metadata_add_with_scope_ptr__3_0 = hidden global ptr @__itt_metadata_add_with_scope_init_3_0, align 8
@__itt_init_ittlib_ptr = internal global ptr @__itt_init_ittlib, align 8

; Function Attrs: nounwind uwtable
define internal void @__itt_metadata_add_with_scope_init_3_0(ptr noundef %0, i32 noundef %1, ptr noundef %2, i32 noundef %3, i64 noundef %4, ptr noundef %5) #0 {
  %7 = alloca ptr, align 8
  %8 = alloca i32, align 4
  %9 = alloca ptr, align 8
  %10 = alloca i32, align 4
  %11 = alloca i64, align 8
  %12 = alloca ptr, align 8
  store ptr %0, ptr %7, align 8, !tbaa !27
  store i32 %1, ptr %8, align 4, !tbaa !24
  store ptr %2, ptr %9, align 8, !tbaa !28
  store i32 %3, ptr %10, align 4, !tbaa !24
  store i64 %4, ptr %11, align 8, !tbaa !25
  store ptr %5, ptr %12, align 8, !tbaa !21
  %13 = load volatile i64, ptr getelementptr inbounds nuw (%struct.___itt_global, ptr @__itt__ittapi_global, i32 0, i32 4), align 8, !tbaa !3
  %14 = icmp ne i64 %13, 0
  br i1 %14, label %21, label %15

15:                                               ; preds = %6
  %16 = load ptr, ptr getelementptr inbounds nuw (%struct.___itt_global, ptr @__itt__ittapi_global, i32 0, i32 13), align 8, !tbaa !20
  %17 = icmp eq ptr %16, null
  br i1 %17, label %18, label %21

18:                                               ; preds = %15
  %19 = load ptr, ptr @__itt_init_ittlib_ptr, align 8, !tbaa !21
  %20 = call i32 %19(ptr noundef null, i32 noundef -1)
  br label %21

21:                                               ; preds = %18, %15, %6
  %22 = load ptr, ptr @__itt_metadata_add_with_scope_ptr__3_0, align 8, !tbaa !21
  %23 = icmp ne ptr %22, null
  br i1 %23, label %24, label %35

24:                                               ; preds = %21
  %25 = load ptr, ptr @__itt_metadata_add_with_scope_ptr__3_0, align 8, !tbaa !21
  %26 = icmp ne ptr %25, @__itt_metadata_add_with_scope_init_3_0
  br i1 %26, label %27, label %35

27:                                               ; preds = %24
  %28 = load ptr, ptr @__itt_metadata_add_with_scope_ptr__3_0, align 8, !tbaa !21
  %29 = load ptr, ptr %7, align 8, !tbaa !27
  %30 = load i32, ptr %8, align 4, !tbaa !24
  %31 = load ptr, ptr %9, align 8, !tbaa !28
  %32 = load i32, ptr %10, align 4, !tbaa !24
  %33 = load i64, ptr %11, align 8, !tbaa !25
  %34 = load ptr, ptr %12, align 8, !tbaa !21
  call void %28(ptr noundef %29, i32 noundef %30, ptr noundef %31, i32 noundef %32, i64 noundef %33, ptr noundef %34)
  br label %36

35:                                               ; preds = %24, %21
  br label %36

36:                                               ; preds = %35, %27
  ret void
}